; Function Attrs: nounwind uwtable
define void @Emb_ManVecRandom(ptr noundef writeonly captures(none) %0, i32 noundef %1) local_unnamed_addr #1 {
  %3 = icmp sgt i32 %1, 0
  br i1 %3, label %.lr.ph.preheader, label %._crit_edge

.lr.ph.preheader:                                 ; preds = %2
  %wide.trip.count = zext nneg i32 %1 to i64
  br label %.lr.ph

.lr.ph:                                           ; preds = %.lr.ph.preheader, %.lr.ph
  %indvars.iv = phi i64 [ 0, %.lr.ph.preheader ], [ %indvars.iv.next, %.lr.ph ]
  %4 = tail call i32 @Gia_ManRandom(i32 noundef 0) #27
  %5 = uitofp i32 %4 to float
  %6 = getelementptr inbounds nuw float, ptr %0, i64 %indvars.iv
  store float %5, ptr %6, align 4, !tbaa !106
  %indvars.iv.next = add nuw nsw i64 %indvars.iv, 1
  %exitcond.not = icmp eq i64 %indvars.iv.next, %wide.trip.count
  br i1 %exitcond.not, label %._crit_edge, label %.lr.ph, !llvm.loop !125

._crit_edge:                                      ; preds = %.lr.ph, %2
  ret void
}